; Function Attrs: nounwind uwtable
define ptr @initialize_Lean_Meta_CollectFVars(i8 noundef zeroext %0, ptr noundef readnone captures(none) %1) local_unnamed_addr #0 {
  %.b8 = load i1, ptr @_G_initialized, align 1
  br i1 %.b8, label %3, label %7

3:                                                ; preds = %2
  tail call void @lean_inc_heartbeat() #3
  %4 = tail call noalias ptr @mi_malloc_small(i64 noundef 24) #3
  %5 = icmp eq ptr %4, null
  br i1 %5, label %6, label %.sink.split

6:                                                ; preds = %3
  tail call void @lean_internal_panic_out_of_memory() #4
  unreachable

7:                                                ; preds = %2
  store i1 true, ptr @_G_initialized, align 1
  %8 = tail call ptr @initialize_Lean_Util_CollectFVars(i8 noundef zeroext %0, ptr noundef nonnull inttoptr (i64 1 to ptr)) #3
  %9 = getelementptr i8, ptr %8, i64 4
  %.val = load i32, ptr %9, align 4
  %.mask.i = and i32 %.val, -16777216
  %10 = icmp eq i32 %.mask.i, 16777216
  br i1 %10, label %35, label %11

11:                                               ; preds = %7
  %12 = load i32, ptr %8, align 4, !tbaa !4
  %13 = icmp sgt i32 %12, 1
  br i1 %13, label %14, label %16, !prof !11

14:                                               ; preds = %11
  %15 = add nsw i32 %12, -1
  store i32 %15, ptr %8, align 4, !tbaa !4
  br label %lean_dec_ref.exit10

16:                                               ; preds = %11
  %.not.i9 = icmp eq i32 %12, 0
  br i1 %.not.i9, label %lean_dec_ref.exit10, label %17

17:                                               ; preds = %16
  tail call void @lean_dec_ref_cold(ptr noundef nonnull %8) #3
  br label %lean_dec_ref.exit10

lean_dec_ref.exit10:                              ; preds = %14, %16, %17
  %18 = tail call ptr @initialize_Lean_Meta_Basic(i8 noundef zeroext %0, ptr noundef nonnull inttoptr (i64 1 to ptr)) #3
  %19 = getelementptr i8, ptr %18, i64 4
  %.val11 = load i32, ptr %19, align 4
  %.mask.i12 = and i32 %.val11, -16777216
  %20 = icmp eq i32 %.mask.i12, 16777216
  br i1 %20, label %35, label %21

21:                                               ; preds = %lean_dec_ref.exit10
  %22 = load i32, ptr %18, align 4, !tbaa !4
  %23 = icmp sgt i32 %22, 1
  br i1 %23, label %24, label %26, !prof !11

24:                                               ; preds = %21
  %25 = add nsw i32 %22, -1
  store i32 %25, ptr %18, align 4, !tbaa !4
  br label %lean_dec_ref.exit

26:                                               ; preds = %21
  %.not.i = icmp eq i32 %22, 0
  br i1 %.not.i, label %lean_dec_ref.exit, label %27

27:                                               ; preds = %26
  tail call void @lean_dec_ref_cold(ptr noundef nonnull %18) #3
  br label %lean_dec_ref.exit

lean_dec_ref.exit:                                ; preds = %24, %26, %27
  %28 = tail call ptr @lean_array_mk(ptr noundef nonnull inttoptr (i64 1 to ptr)) #3
  store ptr %28, ptr @l_Lean_Meta_removeUnused___closed__1, align 8, !tbaa !9
  tail call void @lean_mark_persistent(ptr noundef %28) #3
  tail call void @lean_inc_heartbeat() #3
  %29 = tail call noalias ptr @mi_malloc_small(i64 noundef 24) #3
  %30 = icmp eq ptr %29, null
  br i1 %30, label %31, label %.sink.split

31:                                               ; preds = %lean_dec_ref.exit
  tail call void @lean_internal_panic_out_of_memory() #4
  unreachable

.sink.split:                                      ; preds = %lean_dec_ref.exit, %3
  %.sink17 = phi ptr [ %4, %3 ], [ %29, %lean_dec_ref.exit ]
  %32 = getelementptr inbounds nuw i8, ptr %.sink17, i64 4
  store i32 1, ptr %.sink17, align 4, !tbaa !4
  store i32 131096, ptr %32, align 4
  %33 = getelementptr inbounds nuw i8, ptr %.sink17, i64 8
  store ptr inttoptr (i64 1 to ptr), ptr %33, align 8, !tbaa !9
  %34 = getelementptr inbounds nuw i8, ptr %.sink17, i64 16
  store ptr inttoptr (i64 1 to ptr), ptr %34, align 8, !tbaa !9
  br label %35

35:                                               ; preds = %.sink.split, %lean_dec_ref.exit10, %7
  %.0 = phi ptr [ %8, %7 ], [ %18, %lean_dec_ref.exit10 ], [ %.sink17, %.sink.split ]
  ret ptr %.0
}